target datalayout = "e-m:e-p270:32:32-p271:32:32-p272:64:64-i64:64-i128:128-f80:128-n8:16:32:64-S128"
target triple = "x86_64-unknown-linux-gnu"

%union.pthread_mutex_t = type { %struct.__pthread_mutex_s }
%struct.__pthread_mutex_s = type { i32, i32, i32, i32, i32, i16, i16, %struct.__pthread_internal_list }
%struct.__pthread_internal_list = type { ptr, ptr }
%struct.RBRootLeftCached = type { %struct.RBRoot, ptr }
%struct.RBRoot = type { ptr }
%struct.IntervalTreeNode = type { %struct.RBNode, i64, i64, i64 }
%struct.RBNode = type { i64, ptr, ptr }

@mmap_lock_count = internal thread_local global i32 0, align 4
@mmap_mutex = internal global %union.pthread_mutex_t zeroinitializer, align 8
@.str = private unnamed_addr constant [20 x i8] c"mmap_lock_count > 0\00", align 1
@.str.1 = private unnamed_addr constant [26 x i8] c"../qemu/linux-user/mmap.c\00", align 1
@__PRETTY_FUNCTION__.mmap_unlock = private unnamed_addr constant [23 x i8] c"void mmap_unlock(void)\00", align 1
@guest_base = external global i64, align 8
@shm_regions = internal global %struct.RBRootLeftCached zeroinitializer, align 8

; Function Attrs: nounwind sspstrong uwtable
define dso_local void @mmap_unlock() #0 {
entry:
  %0 = call align 4 ptr @llvm.threadlocal.address.p0(ptr align 4 @mmap_lock_count)
  %1 = load i32, ptr %0, align 4
  %cmp = icmp sgt i32 %1, 0
  br i1 %cmp, label %if.then, label %if.else

if.then:                                          ; preds = %entry
  br label %if.end

if.else:                                          ; preds = %entry
  call void @__assert_fail(ptr noundef @.str, ptr noundef @.str.1, i32 noundef 45, ptr noundef @__PRETTY_FUNCTION__.mmap_unlock) #9
  unreachable

if.end:                                           ; preds = %if.then
  %2 = call align 4 ptr @llvm.threadlocal.address.p0(ptr align 4 @mmap_lock_count)
  %3 = load i32, ptr %2, align 4
  %dec = add i32 %3, -1
  store i32 %dec, ptr %2, align 4
  %cmp1 = icmp eq i32 %dec, 0
  br i1 %cmp1, label %if.then2, label %if.end3

if.then2:                                         ; preds = %if.end
  %call = call i32 @pthread_mutex_unlock(ptr noundef @mmap_mutex) #8
  br label %if.end3

if.end3:                                          ; preds = %if.then2, %if.end
  ret void
}

; Function Attrs: nounwind sspstrong uwtable
define internal void @mmap_unlock_guard(ptr noundef %unused) #0 {
entry:
  %unused.addr = alloca ptr, align 8
  store ptr %unused, ptr %unused.addr, align 8
  call void @mmap_unlock()
  ret void
}

; Function Attrs: nounwind sspstrong uwtable
define internal void @shm_region_rm_complete(i64 noundef %start, i64 noundef %last) #0 {
entry:
  %start.addr = alloca i64, align 8
  %last.addr = alloca i64, align 8
  %i = alloca ptr, align 8
  %n = alloca ptr, align 8
  store i64 %start, ptr %start.addr, align 8
  store i64 %last, ptr %last.addr, align 8
  %0 = load i64, ptr %start.addr, align 8
  %1 = load i64, ptr %last.addr, align 8
  %call = call ptr @interval_tree_iter_first(ptr noundef @shm_regions, i64 noundef %0, i64 noundef %1)
  store ptr %call, ptr %i, align 8
  br label %for.cond

for.cond:                                         ; preds = %for.inc, %entry
  %2 = load ptr, ptr %i, align 8
  %tobool = icmp ne ptr %2, null
  br i1 %tobool, label %for.body, label %for.end

for.body:                                         ; preds = %for.cond
  %3 = load ptr, ptr %i, align 8
  %4 = load i64, ptr %start.addr, align 8
  %5 = load i64, ptr %last.addr, align 8
  %call1 = call ptr @interval_tree_iter_next(ptr noundef %3, i64 noundef %4, i64 noundef %5)
  store ptr %call1, ptr %n, align 8
  %6 = load ptr, ptr %i, align 8
  %start2 = getelementptr inbounds %struct.IntervalTreeNode, ptr %6, i32 0, i32 1
  %7 = load i64, ptr %start2, align 8
  %8 = load i64, ptr %start.addr, align 8
  %cmp = icmp uge i64 %7, %8
  br i1 %cmp, label %land.lhs.true, label %if.end

land.lhs.true:                                    ; preds = %for.body
  %9 = load ptr, ptr %i, align 8
  %last3 = getelementptr inbounds %struct.IntervalTreeNode, ptr %9, i32 0, i32 2
  %10 = load i64, ptr %last3, align 8
  %11 = load i64, ptr %last.addr, align 8
  %cmp4 = icmp ule i64 %10, %11
  br i1 %cmp4, label %if.then, label %if.end

if.then:                                          ; preds = %land.lhs.true
  %12 = load ptr, ptr %i, align 8
  call void @interval_tree_remove(ptr noundef %12, ptr noundef @shm_regions)
  %13 = load ptr, ptr %i, align 8
  call void @g_free(ptr noundef %13)
  br label %if.end

if.end:                                           ; preds = %if.then, %land.lhs.true, %for.body
  br label %for.inc

for.inc:                                          ; preds = %if.end
  %14 = load ptr, ptr %n, align 8
  store ptr %14, ptr %i, align 8
  br label %for.cond, !llvm.loop !13

for.end:                                          ; preds = %for.cond
  ret void
}

; Function Attrs: nounwind sspstrong uwtable
define internal ptr @g2h_untagged(i64 noundef %x) #0 {
entry:
  %x.addr = alloca i64, align 8
  store i64 %x, ptr %x.addr, align 8
  %0 = load i64, ptr %x.addr, align 8
  %1 = load i64, ptr @guest_base, align 8
  %add = add i64 %0, %1
  %2 = inttoptr i64 %add to ptr
  ret ptr %2
}

; Function Attrs: nounwind sspstrong uwtable
define internal i64 @shm_region_find(i64 noundef %start) #0 {
entry:
  %retval = alloca i64, align 8
  %start.addr = alloca i64, align 8
  %i = alloca ptr, align 8
  store i64 %start, ptr %start.addr, align 8
  %0 = load i64, ptr %start.addr, align 8
  %1 = load i64, ptr %start.addr, align 8
  %call = call ptr @interval_tree_iter_first(ptr noundef @shm_regions, i64 noundef %0, i64 noundef %1)
  store ptr %call, ptr %i, align 8
  br label %for.cond

for.cond:                                         ; preds = %for.inc, %entry
  %2 = load ptr, ptr %i, align 8
  %tobool = icmp ne ptr %2, null
  br i1 %tobool, label %for.body, label %for.end

for.body:                                         ; preds = %for.cond
  %3 = load ptr, ptr %i, align 8
  %start1 = getelementptr inbounds %struct.IntervalTreeNode, ptr %3, i32 0, i32 1
  %4 = load i64, ptr %start1, align 8
  %5 = load i64, ptr %start.addr, align 8
  %cmp = icmp eq i64 %4, %5
  br i1 %cmp, label %if.then, label %if.end

if.then:                                          ; preds = %for.body
  %6 = load ptr, ptr %i, align 8
  %last = getelementptr inbounds %struct.IntervalTreeNode, ptr %6, i32 0, i32 2
  %7 = load i64, ptr %last, align 8
  store i64 %7, ptr %retval, align 8
  br label %return

if.end:                                           ; preds = %for.body
  br label %for.inc

for.inc:                                          ; preds = %if.end
  %8 = load ptr, ptr %i, align 8
  %9 = load i64, ptr %start.addr, align 8
  %10 = load i64, ptr %start.addr, align 8
  %call2 = call ptr @interval_tree_iter_next(ptr noundef %8, i64 noundef %9, i64 noundef %10)
  store ptr %call2, ptr %i, align 8
  br label %for.cond, !llvm.loop !21

for.end:                                          ; preds = %for.cond
  store i64 0, ptr %retval, align 8
  br label %return

return:                                           ; preds = %for.end, %if.then
  %11 = load i64, ptr %retval, align 8
  ret i64 %11
}

; Function Attrs: nounwind sspstrong uwtable
define dso_local void @mmap_lock() #0 {
entry:
  %0 = call align 4 ptr @llvm.threadlocal.address.p0(ptr align 4 @mmap_lock_count)
  %1 = load i32, ptr %0, align 4
  %inc = add i32 %1, 1
  store i32 %inc, ptr %0, align 4
  %cmp = icmp eq i32 %1, 0
  br i1 %cmp, label %if.then, label %if.end

if.then:                                          ; preds = %entry
  %call = call i32 @pthread_mutex_lock(ptr noundef @mmap_mutex) #8
  br label %if.end

if.end:                                           ; preds = %if.then, %entry
  ret void
}

; Function Attrs: nounwind sspstrong uwtable
define dso_local i64 @target_shmdt(i64 noundef %shmaddr) #0 {
entry:
  %retval = alloca i64, align 8
  %shmaddr.addr = alloca i64, align 8
  %rv = alloca i64, align 8
  %_mmap_lock_iter = alloca i32, align 4
  %cleanup.dest.slot = alloca i32, align 4
  %last = alloca i64, align 8
  %size = alloca i64, align 8
  store i64 %shmaddr, ptr %shmaddr.addr, align 8
  call void @mmap_lock()
  store i32 0, ptr %_mmap_lock_iter, align 4
  br label %for.cond

for.cond:                                         ; preds = %for.inc, %entry
  %0 = load i32, ptr %_mmap_lock_iter, align 4
  %cmp = icmp eq i32 %0, 0
  br i1 %cmp, label %for.body, label %for.cond.cleanup

for.cond.cleanup:                                 ; preds = %for.cond
  store i32 2, ptr %cleanup.dest.slot, align 4
  br label %cleanup

for.body:                                         ; preds = %for.cond
  %1 = load i64, ptr %shmaddr.addr, align 8
  %call = call i64 @shm_region_find(i64 noundef %1)
  store i64 %call, ptr %last, align 8
  %2 = load i64, ptr %last, align 8
  %cmp1 = icmp eq i64 %2, 0
  br i1 %cmp1, label %if.then, label %if.end

if.then:                                          ; preds = %for.body
  store i64 -22, ptr %retval, align 8
  store i32 1, ptr %cleanup.dest.slot, align 4
  br label %cleanup

if.end:                                           ; preds = %for.body
  %3 = load i64, ptr %shmaddr.addr, align 8
  %call2 = call ptr @g2h_untagged(i64 noundef %3)
  %call3 = call i32 @shmdt(ptr noundef %call2) #8
  %conv = sext i32 %call3 to i64
  %call4 = call i64 @get_errno(i64 noundef %conv)
  store i64 %call4, ptr %rv, align 8
  %4 = load i64, ptr %rv, align 8
  %cmp5 = icmp eq i64 %4, 0
  br i1 %cmp5, label %if.then7, label %if.end9

if.then7:                                         ; preds = %if.end
  %5 = load i64, ptr %last, align 8
  %6 = load i64, ptr %shmaddr.addr, align 8
  %sub = sub i64 %5, %6
  %add = add i64 %sub, 1
  store i64 %add, ptr %size, align 8
  %7 = load i64, ptr %shmaddr.addr, align 8
  %8 = load i64, ptr %last, align 8
  call void @page_set_flags(i64 noundef %7, i64 noundef %8, i32 noundef 0)
  %9 = load i64, ptr %shmaddr.addr, align 8
  %10 = load i64, ptr %last, align 8
  call void @shm_region_rm_complete(i64 noundef %9, i64 noundef %10)
  %11 = load i64, ptr %shmaddr.addr, align 8
  %12 = load i64, ptr %size, align 8
  %call8 = call i32 @mmap_reserve_or_unmap(i64 noundef %11, i64 noundef %12)
  br label %if.end9

if.end9:                                          ; preds = %if.then7, %if.end
  br label %for.inc

for.inc:                                          ; preds = %if.end9
  store i32 1, ptr %_mmap_lock_iter, align 4
  br label %for.cond, !llvm.loop !20

cleanup:                                          ; preds = %if.then, %for.cond.cleanup
  call void @mmap_unlock_guard(ptr noundef %_mmap_lock_iter)
  %cleanup.dest = load i32, ptr %cleanup.dest.slot, align 4
  switch i32 %cleanup.dest, label %unreachable [
    i32 2, label %for.end
    i32 1, label %return
  ]

for.end:                                          ; preds = %cleanup
  %13 = load i64, ptr %rv, align 8
  store i64 %13, ptr %retval, align 8
  br label %return

return:                                           ; preds = %for.end, %cleanup
  %14 = load i64, ptr %retval, align 8
  ret i64 %14

unreachable:                                      ; preds = %cleanup
  unreachable
}