; Function Attrs: nounwind sspstrong uwtable
define dso_local i64 @target_shmdt(i64 noundef %shmaddr) local_unnamed_addr #0 {
entry:
  %0 = tail call align 4 ptr @llvm.threadlocal.address.p0(ptr align 4 @mmap_lock_count)
  %1 = load i32, ptr %0, align 4
  %inc.i = add i32 %1, 1
  store i32 %inc.i, ptr %0, align 4
  %cmp.i = icmp eq i32 %1, 0
  br i1 %cmp.i, label %if.then.i, label %mmap_lock.exit

if.then.i:                                        ; preds = %entry
  %call.i = tail call i32 @pthread_mutex_lock(ptr noundef nonnull @mmap_mutex) #14
  br label %mmap_lock.exit

mmap_lock.exit:                                   ; preds = %entry, %if.then.i
  %call.i10 = tail call ptr @interval_tree_iter_first(ptr noundef nonnull @shm_regions, i64 noundef %shmaddr, i64 noundef %shmaddr) #14
  %tobool.not9.i = icmp eq ptr %call.i10, null
  br i1 %tobool.not9.i, label %cleanup, label %for.body.i

for.body.i:                                       ; preds = %mmap_lock.exit, %for.inc.i
  %i.010.i = phi ptr [ %call2.i, %for.inc.i ], [ %call.i10, %mmap_lock.exit ]
  %start1.i = getelementptr inbounds nuw i8, ptr %i.010.i, i64 24
  %2 = load i64, ptr %start1.i, align 8
  %cmp.i11 = icmp eq i64 %2, %shmaddr
  br i1 %cmp.i11, label %shm_region_find.exit, label %for.inc.i

for.inc.i:                                        ; preds = %for.body.i
  %call2.i = tail call ptr @interval_tree_iter_next(ptr noundef nonnull %i.010.i, i64 noundef %shmaddr, i64 noundef %shmaddr) #14
  %tobool.not.i = icmp eq ptr %call2.i, null
  br i1 %tobool.not.i, label %cleanup, label %for.body.i, !llvm.loop !20

shm_region_find.exit:                             ; preds = %for.body.i
  %last.i = getelementptr inbounds nuw i8, ptr %i.010.i, i64 32
  %3 = load i64, ptr %last.i, align 8
  %cmp1 = icmp eq i64 %3, 0
  br i1 %cmp1, label %cleanup, label %if.end

if.end:                                           ; preds = %shm_region_find.exit
  %4 = load i64, ptr @guest_base, align 8
  %add.i = add i64 %4, %shmaddr
  %5 = inttoptr i64 %add.i to ptr
  %call3 = tail call i32 @shmdt(ptr noundef %5) #14
  %conv = sext i32 %call3 to i64
  %call4 = tail call i64 @get_errno(i64 noundef %conv) #14
  %cmp5 = icmp eq i64 %call4, 0
  br i1 %cmp5, label %if.then7, label %cleanup, !llvm.loop !21

if.then7:                                         ; preds = %if.end
  %reass.sub = sub i64 %3, %shmaddr
  %add = add i64 %reass.sub, 1
  tail call void @page_set_flags(i64 noundef %shmaddr, i64 noundef %3, i32 noundef 0) #14
  %call.i13 = tail call ptr @interval_tree_iter_first(ptr noundef nonnull @shm_regions, i64 noundef %shmaddr, i64 noundef %3) #14
  %tobool.not10.i = icmp eq ptr %call.i13, null
  br i1 %tobool.not10.i, label %shm_region_rm_complete.exit, label %for.body.i14

for.body.i14:                                     ; preds = %if.then7, %for.inc.i16
  %i.011.i = phi ptr [ %call1.i, %for.inc.i16 ], [ %call.i13, %if.then7 ]
  %call1.i = tail call ptr @interval_tree_iter_next(ptr noundef nonnull %i.011.i, i64 noundef %shmaddr, i64 noundef %3) #14
  %start2.i = getelementptr inbounds nuw i8, ptr %i.011.i, i64 24
  %6 = load i64, ptr %start2.i, align 8
  %cmp.not.i = icmp ult i64 %6, %shmaddr
  br i1 %cmp.not.i, label %for.inc.i16, label %land.lhs.true.i

land.lhs.true.i:                                  ; preds = %for.body.i14
  %last3.i = getelementptr inbounds nuw i8, ptr %i.011.i, i64 32
  %7 = load i64, ptr %last3.i, align 8
  %cmp4.not.i = icmp ugt i64 %7, %3
  br i1 %cmp4.not.i, label %for.inc.i16, label %if.then.i15

if.then.i15:                                      ; preds = %land.lhs.true.i
  tail call void @interval_tree_remove(ptr noundef nonnull %i.011.i, ptr noundef nonnull @shm_regions) #14
  tail call void @g_free(ptr noundef nonnull %i.011.i) #14
  br label %for.inc.i16

for.inc.i16:                                      ; preds = %if.then.i15, %land.lhs.true.i, %for.body.i14
  %tobool.not.i17 = icmp eq ptr %call1.i, null
  br i1 %tobool.not.i17, label %shm_region_rm_complete.exit, label %for.body.i14, !llvm.loop !13

shm_region_rm_complete.exit:                      ; preds = %for.inc.i16, %if.then7
  %call8 = tail call fastcc i32 @mmap_reserve_or_unmap(i64 noundef %shmaddr, i64 noundef %add)
  br label %cleanup, !llvm.loop !21

cleanup:                                          ; preds = %for.inc.i, %mmap_lock.exit, %shm_region_find.exit, %if.end, %shm_region_rm_complete.exit
  %cmp25 = phi i64 [ -22, %shm_region_find.exit ], [ -22, %mmap_lock.exit ], [ %call4, %if.end ], [ 0, %shm_region_rm_complete.exit ], [ -22, %for.inc.i ]
  %8 = load i32, ptr %0, align 4
  %cmp.i.i = icmp sgt i32 %8, 0
  br i1 %cmp.i.i, label %if.end.i.i, label %if.else.i.i

if.else.i.i:                                      ; preds = %cleanup
  tail call void @__assert_fail(ptr noundef nonnull @.str, ptr noundef nonnull @.str.1, i32 noundef 45, ptr noundef nonnull @__PRETTY_FUNCTION__.mmap_unlock) #15
  unreachable

if.end.i.i:                                       ; preds = %cleanup
  %dec.i.i = add nsw i32 %8, -1
  store i32 %dec.i.i, ptr %0, align 4
  %cmp1.i.i = icmp eq i32 %dec.i.i, 0
  br i1 %cmp1.i.i, label %if.then2.i.i, label %mmap_unlock_guard.exit

if.then2.i.i:                                     ; preds = %if.end.i.i
  %call.i.i = tail call i32 @pthread_mutex_unlock(ptr noundef nonnull @mmap_mutex) #14
  br label %mmap_unlock_guard.exit

mmap_unlock_guard.exit:                           ; preds = %if.end.i.i, %if.then2.i.i
  ret i64 %cmp25
}